target datalayout = "e-m:e-p270:32:32-p271:32:32-p272:64:64-i64:64-i128:128-f80:128-n8:16:32:64-S128"
target triple = "x86_64-pc-linux-gnu"

%"class.icu_77::BytesTrie" = type <{ ptr, ptr, ptr, i32, [4 x i8] }>

; Function Attrs: inlinehint mustprogress nounwind uwtable
define linkonce_odr void @_ZN6icu_779BytesTrie4stopEv(ptr noundef nonnull align 8 dereferenceable(28) %0) #5 comdat align 2 {
  %2 = alloca ptr, align 8
  store ptr %0, ptr %2, align 8, !tbaa !3
  %3 = load ptr, ptr %2, align 8
  %4 = getelementptr inbounds nuw %"class.icu_77::BytesTrie", ptr %3, i32 0, i32 2
  store ptr null, ptr %4, align 8, !tbaa !15
  ret void
}

; Function Attrs: inlinehint mustprogress nounwind uwtable
define linkonce_odr noundef ptr @_ZN6icu_779BytesTrie9skipValueEPKhi(ptr noundef %0, i32 noundef %1) #5 comdat align 2 {
  %3 = alloca ptr, align 8
  %4 = alloca i32, align 4
  store ptr %0, ptr %3, align 8, !tbaa !12
  store i32 %1, ptr %4, align 4, !tbaa !13
  %5 = load i32, ptr %4, align 4, !tbaa !13
  %6 = icmp sge i32 %5, 162
  br i1 %6, label %7, label %29

7:                                                ; preds = %2
  %8 = load i32, ptr %4, align 4, !tbaa !13
  %9 = icmp slt i32 %8, 216
  br i1 %9, label %10, label %13

10:                                               ; preds = %7
  %11 = load ptr, ptr %3, align 8, !tbaa !12
  %12 = getelementptr inbounds nuw i8, ptr %11, i32 1
  store ptr %12, ptr %3, align 8, !tbaa !12
  br label %28

13:                                               ; preds = %7
  %14 = load i32, ptr %4, align 4, !tbaa !13
  %15 = icmp slt i32 %14, 252
  br i1 %15, label %16, label %19

16:                                               ; preds = %13
  %17 = load ptr, ptr %3, align 8, !tbaa !12
  %18 = getelementptr inbounds i8, ptr %17, i64 2
  store ptr %18, ptr %3, align 8, !tbaa !12
  br label %27

19:                                               ; preds = %13
  %20 = load i32, ptr %4, align 4, !tbaa !13
  %21 = ashr i32 %20, 1
  %22 = and i32 %21, 1
  %23 = add nsw i32 3, %22
  %24 = load ptr, ptr %3, align 8, !tbaa !12
  %25 = sext i32 %23 to i64
  %26 = getelementptr inbounds i8, ptr %24, i64 %25
  store ptr %26, ptr %3, align 8, !tbaa !12
  br label %27

27:                                               ; preds = %19, %16
  br label %28

28:                                               ; preds = %27, %10
  br label %29

29:                                               ; preds = %28, %2
  %30 = load ptr, ptr %3, align 8, !tbaa !12
  ret ptr %30
}

; Function Attrs: inlinehint mustprogress nounwind uwtable
define linkonce_odr noundef i32 @_ZN6icu_779BytesTrie11valueResultEi(i32 noundef %0) #5 comdat align 2 {
  %2 = alloca i32, align 4
  store i32 %0, ptr %2, align 4, !tbaa !13
  %3 = load i32, ptr %2, align 4, !tbaa !13
  %4 = and i32 %3, 1
  %5 = sub nsw i32 3, %4
  ret i32 %5
}

; Function Attrs: mustprogress uwtable
define noundef i32 @_ZN6icu_779BytesTrie8nextImplEPKhi(ptr noundef nonnull align 8 dereferenceable(28) %0, ptr noundef %1, i32 noundef %2) #4 align 2 {
  %4 = alloca i32, align 4
  %5 = alloca ptr, align 8
  %6 = alloca ptr, align 8
  %7 = alloca i32, align 4
  %8 = alloca i32, align 4
  %9 = alloca i32, align 4
  %10 = alloca i32, align 4
  store ptr %0, ptr %5, align 8, !tbaa !3
  store ptr %1, ptr %6, align 8, !tbaa !12
  store i32 %2, ptr %7, align 4, !tbaa !13
  %11 = load ptr, ptr %5, align 8
  br label %12

12:                                               ; preds = %71, %3
  call void @llvm.lifetime.start.p0(i64 4, ptr %8) #8
  %13 = load ptr, ptr %6, align 8, !tbaa !12
  %14 = getelementptr inbounds nuw i8, ptr %13, i32 1
  store ptr %14, ptr %6, align 8, !tbaa !12
  %15 = load i8, ptr %13, align 1, !tbaa !14
  %16 = zext i8 %15 to i32
  store i32 %16, ptr %8, align 4, !tbaa !13
  %17 = load i32, ptr %8, align 4, !tbaa !13
  %18 = icmp slt i32 %17, 16
  br i1 %18, label %19, label %24

19:                                               ; preds = %12
  %20 = load ptr, ptr %6, align 8, !tbaa !12
  %21 = load i32, ptr %8, align 4, !tbaa !13
  %22 = load i32, ptr %7, align 4, !tbaa !13
  %23 = call noundef i32 @_ZN6icu_779BytesTrie10branchNextEPKhii(ptr noundef nonnull align 8 dereferenceable(28) %11, ptr noundef %20, i32 noundef %21, i32 noundef %22)
  store i32 %23, ptr %4, align 4
  store i32 1, ptr %9, align 4
  br label %69

24:                                               ; preds = %12
  %25 = load i32, ptr %8, align 4, !tbaa !13
  %26 = icmp slt i32 %25, 32
  br i1 %26, label %27, label %57

27:                                               ; preds = %24
  call void @llvm.lifetime.start.p0(i64 4, ptr %10) #8
  %28 = load i32, ptr %8, align 4, !tbaa !13
  %29 = sub nsw i32 %28, 16
  store i32 %29, ptr %10, align 4, !tbaa !13
  %30 = load i32, ptr %7, align 4, !tbaa !13
  %31 = load ptr, ptr %6, align 8, !tbaa !12
  %32 = getelementptr inbounds nuw i8, ptr %31, i32 1
  store ptr %32, ptr %6, align 8, !tbaa !12
  %33 = load i8, ptr %31, align 1, !tbaa !14
  %34 = zext i8 %33 to i32
  %35 = icmp eq i32 %30, %34
  br i1 %35, label %36, label %55

36:                                               ; preds = %27
  %37 = load i32, ptr %10, align 4, !tbaa !13
  %38 = add nsw i32 %37, -1
  store i32 %38, ptr %10, align 4, !tbaa !13
  %39 = getelementptr inbounds nuw %"class.icu_77::BytesTrie", ptr %11, i32 0, i32 3
  store i32 %38, ptr %39, align 8, !tbaa !16
  %40 = load ptr, ptr %6, align 8, !tbaa !12
  %41 = getelementptr inbounds nuw %"class.icu_77::BytesTrie", ptr %11, i32 0, i32 2
  store ptr %40, ptr %41, align 8, !tbaa !15
  %42 = load i32, ptr %10, align 4, !tbaa !13
  %43 = icmp slt i32 %42, 0
  br i1 %43, label %44, label %52

44:                                               ; preds = %36
  %45 = load ptr, ptr %6, align 8, !tbaa !12
  %46 = load i8, ptr %45, align 1, !tbaa !14
  %47 = zext i8 %46 to i32
  store i32 %47, ptr %8, align 4, !tbaa !13
  %48 = icmp sge i32 %47, 32
  br i1 %48, label %49, label %52

49:                                               ; preds = %44
  %50 = load i32, ptr %8, align 4, !tbaa !13
  %51 = call noundef i32 @_ZN6icu_779BytesTrie11valueResultEi(i32 noundef %50)
  br label %53

52:                                               ; preds = %44, %36
  br label %53

53:                                               ; preds = %52, %49
  %54 = phi i32 [ %51, %49 ], [ 1, %52 ]
  store i32 %54, ptr %4, align 4
  store i32 1, ptr %9, align 4
  br label %56

55:                                               ; preds = %27
  store i32 2, ptr %9, align 4
  br label %56

56:                                               ; preds = %55, %53
  call void @llvm.lifetime.end.p0(i64 4, ptr %10) #8
  br label %69

57:                                               ; preds = %24
  %58 = load i32, ptr %8, align 4, !tbaa !13
  %59 = and i32 %58, 1
  %60 = icmp ne i32 %59, 0
  br i1 %60, label %61, label %62

61:                                               ; preds = %57
  store i32 2, ptr %9, align 4
  br label %69

62:                                               ; preds = %57
  %63 = load ptr, ptr %6, align 8, !tbaa !12
  %64 = load i32, ptr %8, align 4, !tbaa !13
  %65 = call noundef ptr @_ZN6icu_779BytesTrie9skipValueEPKhi(ptr noundef %63, i32 noundef %64)
  store ptr %65, ptr %6, align 8, !tbaa !12
  br label %66

66:                                               ; preds = %62
  br label %67

67:                                               ; preds = %66
  br label %68

68:                                               ; preds = %67
  store i32 0, ptr %9, align 4
  br label %69

69:                                               ; preds = %68, %61, %56, %19
  call void @llvm.lifetime.end.p0(i64 4, ptr %8) #8
  %70 = load i32, ptr %9, align 4
  switch i32 %70, label %75 [
    i32 0, label %71
    i32 1, label %73
    i32 2, label %72
  ]

71:                                               ; preds = %69
  br label %12, !llvm.loop !22

72:                                               ; preds = %69
  call void @_ZN6icu_779BytesTrie4stopEv(ptr noundef nonnull align 8 dereferenceable(28) %11)
  store i32 0, ptr %4, align 4
  br label %73

73:                                               ; preds = %72, %69
  %74 = load i32, ptr %4, align 4
  ret i32 %74

75:                                               ; preds = %69
  unreachable
}