; Function Attrs: mustprogress nofree norecurse nosync nounwind memory(read, argmem: readwrite, inaccessiblemem: none) uwtable
define noundef range(i32 0, 4) i32 @_ZN6icu_779BytesTrie8nextImplEPKhi(ptr noundef nonnull writeonly align 8 captures(none) dereferenceable(28) %0, ptr noundef %1, i32 noundef %2) local_unnamed_addr #7 align 2 {
  %4 = getelementptr inbounds nuw i8, ptr %1, i64 1
  %5 = load i8, ptr %1, align 1, !tbaa !10
  %6 = zext i8 %5 to i32
  %7 = icmp ult i8 %5, 16
  br i1 %7, label %._crit_edge, label %.lr.ph

._crit_edge:                                      ; preds = %_ZN6icu_779BytesTrie9skipValueEPKhi.exit, %3
  %.lcssa39 = phi ptr [ %4, %3 ], [ %48, %_ZN6icu_779BytesTrie9skipValueEPKhi.exit ]
  %.lcssa = phi i32 [ %6, %3 ], [ %50, %_ZN6icu_779BytesTrie9skipValueEPKhi.exit ]
  %8 = tail call noundef i32 @_ZN6icu_779BytesTrie10branchNextEPKhii(ptr noundef nonnull align 8 dereferenceable(28) %0, ptr noundef nonnull %.lcssa39, i32 noundef %.lcssa, i32 noundef %2)
  br label %_ZN6icu_779BytesTrie9skipValueEPKhi.exit.thread

.lr.ph:                                           ; preds = %3, %_ZN6icu_779BytesTrie9skipValueEPKhi.exit
  %9 = phi i32 [ %50, %_ZN6icu_779BytesTrie9skipValueEPKhi.exit ], [ %6, %3 ]
  %10 = phi i8 [ %49, %_ZN6icu_779BytesTrie9skipValueEPKhi.exit ], [ %5, %3 ]
  %11 = phi ptr [ %48, %_ZN6icu_779BytesTrie9skipValueEPKhi.exit ], [ %4, %3 ]
  %.02144 = phi ptr [ %.122, %_ZN6icu_779BytesTrie9skipValueEPKhi.exit ], [ %1, %3 ]
  %12 = icmp ult i8 %10, 32
  br i1 %12, label %13, label %30

13:                                               ; preds = %.lr.ph
  %14 = getelementptr inbounds nuw i8, ptr %.02144, i64 2
  %15 = load i8, ptr %11, align 1, !tbaa !10
  %16 = zext i8 %15 to i32
  %17 = icmp eq i32 %2, %16
  br i1 %17, label %18, label %.loopexit

18:                                               ; preds = %13
  %19 = add nsw i32 %9, -17
  %20 = getelementptr inbounds nuw i8, ptr %0, i64 24
  store i32 %19, ptr %20, align 8, !tbaa !12
  %21 = getelementptr inbounds nuw i8, ptr %0, i64 16
  store ptr %14, ptr %21, align 8, !tbaa !11
  %22 = icmp eq i8 %10, 16
  br i1 %22, label %23, label %_ZN6icu_779BytesTrie9skipValueEPKhi.exit.thread

23:                                               ; preds = %18
  %24 = load i8, ptr %14, align 1, !tbaa !10
  %25 = icmp ugt i8 %24, 31
  br i1 %25, label %26, label %_ZN6icu_779BytesTrie9skipValueEPKhi.exit.thread

26:                                               ; preds = %23
  %27 = and i8 %24, 1
  %28 = xor i8 %27, 3
  %29 = zext nneg i8 %28 to i32
  br label %_ZN6icu_779BytesTrie9skipValueEPKhi.exit.thread

30:                                               ; preds = %.lr.ph
  %31 = and i32 %9, 1
  %.not = icmp eq i32 %31, 0
  br i1 %.not, label %32, label %.loopexit

32:                                               ; preds = %30
  %33 = icmp ugt i8 %10, -95
  br i1 %33, label %34, label %_ZN6icu_779BytesTrie9skipValueEPKhi.exit

34:                                               ; preds = %32
  %35 = icmp samesign ult i8 %10, -40
  br i1 %35, label %36, label %38

36:                                               ; preds = %34
  %37 = getelementptr inbounds nuw i8, ptr %.02144, i64 2
  br label %_ZN6icu_779BytesTrie9skipValueEPKhi.exit

38:                                               ; preds = %34
  %39 = icmp samesign ult i8 %10, -4
  br i1 %39, label %40, label %42

40:                                               ; preds = %38
  %41 = getelementptr inbounds nuw i8, ptr %.02144, i64 3
  br label %_ZN6icu_779BytesTrie9skipValueEPKhi.exit

42:                                               ; preds = %38
  %43 = lshr exact i32 %9, 1
  %44 = and i32 %43, 1
  %45 = zext nneg i32 %44 to i64
  %46 = getelementptr inbounds nuw i8, ptr %11, i64 %45
  %47 = getelementptr inbounds nuw i8, ptr %46, i64 3
  br label %_ZN6icu_779BytesTrie9skipValueEPKhi.exit

_ZN6icu_779BytesTrie9skipValueEPKhi.exit:         ; preds = %42, %40, %36, %32
  %.122 = phi ptr [ %37, %36 ], [ %41, %40 ], [ %47, %42 ], [ %11, %32 ]
  %48 = getelementptr inbounds nuw i8, ptr %.122, i64 1
  %49 = load i8, ptr %.122, align 1, !tbaa !10
  %50 = zext i8 %49 to i32
  %51 = icmp ult i8 %49, 16
  br i1 %51, label %._crit_edge, label %.lr.ph

.loopexit:                                        ; preds = %30, %13
  %52 = getelementptr inbounds nuw i8, ptr %0, i64 16
  store ptr null, ptr %52, align 8, !tbaa !11
  br label %_ZN6icu_779BytesTrie9skipValueEPKhi.exit.thread

_ZN6icu_779BytesTrie9skipValueEPKhi.exit.thread:  ; preds = %26, %23, %18, %._crit_edge, %.loopexit
  %.3 = phi i32 [ 0, %.loopexit ], [ 1, %18 ], [ 1, %23 ], [ %29, %26 ], [ %8, %._crit_edge ]
  ret i32 %.3
}